target datalayout = "e-m:e-p270:32:32-p271:32:32-p272:64:64-i64:64-i128:128-f80:128-n8:16:32:64-S128"
target triple = "x86_64-pc-linux-gnu"

%"class.std::__cxx11::basic_string" = type { %"struct.std::__cxx11::basic_string<char>::_Alloc_hider", i64, %union.anon }
%"struct.std::__cxx11::basic_string<char>::_Alloc_hider" = type { ptr }
%union.anon = type { i64, [8 x i8] }
%"struct.faiss::SimulatedAnnealingParameters.base" = type <{ double, double, i32, i32, i32, i32, i8, i8 }>
%"struct.faiss::SimulatedAnnealingParameters" = type <{ double, double, i32, i32, i32, i32, i8, i8, [6 x i8] }>
%"class.std::allocator.0" = type { i8 }
%"struct.faiss::PolysemousTraining" = type { %"struct.faiss::SimulatedAnnealingParameters.base", i32, i32, double, i64, %"class.std::__cxx11::basic_string" }

; Function Attrs: mustprogress nounwind uwtable
define linkonce_odr void @_ZNSt15__new_allocatorIcEC2ERKS0_(ptr noundef nonnull align 1 dereferenceable(1) %0, ptr noundef nonnull align 1 dereferenceable(1) %1) unnamed_addr #1 comdat align 2 {
  %3 = alloca ptr, align 8
  %4 = alloca ptr, align 8
  store ptr %0, ptr %3, align 8, !tbaa !90
  store ptr %1, ptr %4, align 8, !tbaa !90
  ret void
}

; Function Attrs: mustprogress nounwind uwtable
define linkonce_odr void @_ZNSt11char_traitsIcE6assignERcRKc(ptr noundef nonnull align 1 dereferenceable(1) %0, ptr noundef nonnull align 1 dereferenceable(1) %1) #1 comdat align 2 {
  %3 = alloca ptr, align 8
  %4 = alloca ptr, align 8
  store ptr %0, ptr %3, align 8, !tbaa !87
  store ptr %1, ptr %4, align 8, !tbaa !87
  %5 = load ptr, ptr %4, align 8, !tbaa !87
  %6 = load i8, ptr %5, align 1, !tbaa !89
  %7 = load ptr, ptr %3, align 8, !tbaa !87
  store i8 %6, ptr %7, align 1, !tbaa !89
  ret void
}

; Function Attrs: mustprogress nounwind uwtable
define available_externally noundef ptr @_ZNKSt7__cxx1112basic_stringIcSt11char_traitsIcESaIcEE7_M_dataEv(ptr noundef nonnull align 8 dereferenceable(32) %0) #1 align 2 {
  %2 = alloca ptr, align 8
  store ptr %0, ptr %2, align 8, !tbaa !75
  %3 = load ptr, ptr %2, align 8
  %4 = getelementptr inbounds nuw %"class.std::__cxx11::basic_string", ptr %3, i32 0, i32 0
  %5 = getelementptr inbounds nuw %"struct.std::__cxx11::basic_string<char>::_Alloc_hider", ptr %4, i32 0, i32 0
  %6 = load ptr, ptr %5, align 8, !tbaa !92
  ret ptr %6
}

; Function Attrs: mustprogress nounwind uwtable
define available_externally void @_ZNSt7__cxx1112basic_stringIcSt11char_traitsIcESaIcEE9_M_lengthEm(ptr noundef nonnull align 8 dereferenceable(32) %0, i64 noundef %1) #1 align 2 {
  %3 = alloca ptr, align 8
  %4 = alloca i64, align 8
  store ptr %0, ptr %3, align 8, !tbaa !75
  store i64 %1, ptr %4, align 8, !tbaa !41
  %5 = load ptr, ptr %3, align 8
  %6 = load i64, ptr %4, align 8, !tbaa !41
  %7 = getelementptr inbounds nuw %"class.std::__cxx11::basic_string", ptr %5, i32 0, i32 1
  store i64 %6, ptr %7, align 8, !tbaa !77
  ret void
}

; Function Attrs: mustprogress nounwind uwtable
define available_externally void @_ZNSaIcEC2ERKS_(ptr noundef nonnull align 1 dereferenceable(1) %0, ptr noundef nonnull align 1 dereferenceable(1) %1) unnamed_addr #1 align 2 {
  %3 = alloca ptr, align 8
  %4 = alloca ptr, align 8
  store ptr %0, ptr %3, align 8, !tbaa !83
  store ptr %1, ptr %4, align 8, !tbaa !83
  %5 = load ptr, ptr %3, align 8
  %6 = load ptr, ptr %4, align 8, !tbaa !83
  call void @_ZNSt15__new_allocatorIcEC2ERKS0_(ptr noundef nonnull align 1 dereferenceable(1) %5, ptr noundef nonnull align 1 dereferenceable(1) %6) #16
  ret void
}

; Function Attrs: mustprogress nounwind uwtable
define linkonce_odr void @_ZNSt15__new_allocatorIcEC2Ev(ptr noundef nonnull align 1 dereferenceable(1) %0) unnamed_addr #1 comdat align 2 {
  %2 = alloca ptr, align 8
  store ptr %0, ptr %2, align 8, !tbaa !90
  ret void
}

; Function Attrs: mustprogress nounwind uwtable
define linkonce_odr noundef ptr @_ZNSt19__ptr_traits_ptr_toIPccLb0EE10pointer_toERc(ptr noundef nonnull align 1 dereferenceable(1) %0) #1 comdat align 2 {
  %2 = alloca ptr, align 8
  store ptr %0, ptr %2, align 8, !tbaa !87
  %3 = load ptr, ptr %2, align 8, !tbaa !87
  ret ptr %3
}

; Function Attrs: noinline noreturn nounwind uwtable
define linkonce_odr hidden void @__clang_call_terminate(ptr noundef %0) #5 comdat {
  %2 = call ptr @__cxa_begin_catch(ptr %0) #16
  call void @_ZSt9terminatev() #19
  unreachable
}

; Function Attrs: mustprogress uwtable
define available_externally void @_ZNSt7__cxx1112basic_stringIcSt11char_traitsIcESaIcEE13_M_set_lengthEm(ptr noundef nonnull align 8 dereferenceable(32) %0, i64 noundef %1) #0 align 2 {
  %3 = alloca ptr, align 8
  %4 = alloca i64, align 8
  %5 = alloca i8, align 1
  store ptr %0, ptr %3, align 8, !tbaa !75
  store i64 %1, ptr %4, align 8, !tbaa !41
  %6 = load ptr, ptr %3, align 8
  %7 = load i64, ptr %4, align 8, !tbaa !41
  call void @_ZNSt7__cxx1112basic_stringIcSt11char_traitsIcESaIcEE9_M_lengthEm(ptr noundef nonnull align 8 dereferenceable(32) %6, i64 noundef %7)
  %8 = call noundef ptr @_ZNKSt7__cxx1112basic_stringIcSt11char_traitsIcESaIcEE7_M_dataEv(ptr noundef nonnull align 8 dereferenceable(32) %6)
  %9 = load i64, ptr %4, align 8, !tbaa !41
  %10 = getelementptr inbounds nuw i8, ptr %8, i64 %9
  call void @llvm.lifetime.start.p0(i64 1, ptr %5) #16
  store i8 0, ptr %5, align 1, !tbaa !89
  call void @_ZNSt11char_traitsIcE6assignERcRKc(ptr noundef nonnull align 1 dereferenceable(1) %10, ptr noundef nonnull align 1 dereferenceable(1) %5) #16
  call void @llvm.lifetime.end.p0(i64 1, ptr %5) #16
  ret void
}

; Function Attrs: alwaysinline mustprogress nounwind uwtable
define available_externally noundef ptr @_ZNSt7__cxx1112basic_stringIcSt11char_traitsIcESaIcEE17_M_use_local_dataEv(ptr noundef nonnull align 8 dereferenceable(32) %0) #13 align 2 {
  %2 = alloca ptr, align 8
  store ptr %0, ptr %2, align 8, !tbaa !75
  %3 = load ptr, ptr %2, align 8
  %4 = call noundef ptr @_ZNSt7__cxx1112basic_stringIcSt11char_traitsIcESaIcEE13_M_local_dataEv(ptr noundef nonnull align 8 dereferenceable(32) %3)
  ret ptr %4
}

; Function Attrs: mustprogress nounwind uwtable
define linkonce_odr void @_ZNSt15__new_allocatorIcED2Ev(ptr noundef nonnull align 1 dereferenceable(1) %0) unnamed_addr #1 comdat align 2 {
  %2 = alloca ptr, align 8
  store ptr %0, ptr %2, align 8, !tbaa !90
  ret void
}

; Function Attrs: mustprogress nounwind uwtable
define available_externally void @_ZNSt7__cxx1112basic_stringIcSt11char_traitsIcESaIcEE12_Alloc_hiderC2EPcOS3_(ptr noundef nonnull align 8 dereferenceable(8) %0, ptr noundef %1, ptr noundef nonnull align 1 dereferenceable(1) %2) unnamed_addr #1 align 2 {
  %4 = alloca ptr, align 8
  %5 = alloca ptr, align 8
  %6 = alloca ptr, align 8
  store ptr %0, ptr %4, align 8, !tbaa !85
  store ptr %1, ptr %5, align 8, !tbaa !87
  store ptr %2, ptr %6, align 8, !tbaa !83
  %7 = load ptr, ptr %4, align 8
  %8 = load ptr, ptr %6, align 8, !tbaa !83
  call void @_ZNSaIcEC2ERKS_(ptr noundef nonnull align 1 dereferenceable(1) %7, ptr noundef nonnull align 1 dereferenceable(1) %8) #16
  %9 = getelementptr inbounds nuw %"struct.std::__cxx11::basic_string<char>::_Alloc_hider", ptr %7, i32 0, i32 0
  %10 = load ptr, ptr %5, align 8, !tbaa !87
  store ptr %10, ptr %9, align 8, !tbaa !88
  ret void
}

; Function Attrs: mustprogress nounwind uwtable
define available_externally void @_ZNSaIcEC2Ev(ptr noundef nonnull align 1 dereferenceable(1) %0) unnamed_addr #1 align 2 {
  %2 = alloca ptr, align 8
  store ptr %0, ptr %2, align 8, !tbaa !83
  %3 = load ptr, ptr %2, align 8
  call void @_ZNSt15__new_allocatorIcEC2Ev(ptr noundef nonnull align 1 dereferenceable(1) %3) #16
  ret void
}

; Function Attrs: mustprogress nounwind uwtable
define available_externally noundef ptr @_ZNSt7__cxx1112basic_stringIcSt11char_traitsIcESaIcEE13_M_local_dataEv(ptr noundef nonnull align 8 dereferenceable(32) %0) #1 align 2 {
  %2 = alloca ptr, align 8
  store ptr %0, ptr %2, align 8, !tbaa !75
  %3 = load ptr, ptr %2, align 8
  %4 = getelementptr inbounds nuw %"class.std::__cxx11::basic_string", ptr %3, i32 0, i32 2
  %5 = getelementptr inbounds [16 x i8], ptr %4, i64 0, i64 0
  %6 = call noundef ptr @_ZNSt19__ptr_traits_ptr_toIPccLb0EE10pointer_toERc(ptr noundef nonnull align 1 dereferenceable(1) %5) #16
  ret ptr %6
}

; Function Attrs: mustprogress nounwind uwtable
define available_externally void @_ZNSt7__cxx1112basic_stringIcSt11char_traitsIcESaIcEEC2Ev(ptr noundef nonnull align 8 dereferenceable(32) %0) unnamed_addr #1 align 2 personality ptr @__gxx_personality_v0 {
  %2 = alloca ptr, align 8
  %3 = alloca %"class.std::allocator.0", align 1
  store ptr %0, ptr %2, align 8, !tbaa !75
  %4 = load ptr, ptr %2, align 8
  %5 = getelementptr inbounds nuw %"class.std::__cxx11::basic_string", ptr %4, i32 0, i32 0
  %6 = invoke noundef ptr @_ZNSt7__cxx1112basic_stringIcSt11char_traitsIcESaIcEE13_M_local_dataEv(ptr noundef nonnull align 8 dereferenceable(32) %4)
          to label %7 unwind label %11

7:                                                ; preds = %1
  call void @llvm.lifetime.start.p0(i64 1, ptr %3) #16
  call void @_ZNSaIcEC2Ev(ptr noundef nonnull align 1 dereferenceable(1) %3) #16
  invoke void @_ZNSt7__cxx1112basic_stringIcSt11char_traitsIcESaIcEE12_Alloc_hiderC2EPcOS3_(ptr noundef nonnull align 8 dereferenceable(8) %5, ptr noundef %6, ptr noundef nonnull align 1 dereferenceable(1) %3)
          to label %8 unwind label %11

8:                                                ; preds = %7
  call void @_ZNSt15__new_allocatorIcED2Ev(ptr noundef nonnull align 1 dereferenceable(1) %3) #16
  call void @llvm.lifetime.end.p0(i64 1, ptr %3) #16
  %9 = call noundef ptr @_ZNSt7__cxx1112basic_stringIcSt11char_traitsIcESaIcEE17_M_use_local_dataEv(ptr noundef nonnull align 8 dereferenceable(32) %4) #16
  invoke void @_ZNSt7__cxx1112basic_stringIcSt11char_traitsIcESaIcEE13_M_set_lengthEm(ptr noundef nonnull align 8 dereferenceable(32) %4, i64 noundef 0)
          to label %10 unwind label %11

10:                                               ; preds = %8
  ret void

11:                                               ; preds = %8, %7, %1
  %12 = landingpad { ptr, i32 }
          catch ptr null
  %13 = extractvalue { ptr, i32 } %12, 0
  call void @__clang_call_terminate(ptr %13) #19
  unreachable
}

; Function Attrs: mustprogress nounwind uwtable
define linkonce_odr void @_ZN5faiss28SimulatedAnnealingParametersC2Ev(ptr noundef nonnull align 8 dereferenceable(34) %0) unnamed_addr #1 comdat align 2 {
  %2 = alloca ptr, align 8
  store ptr %0, ptr %2, align 8, !tbaa !63
  %3 = load ptr, ptr %2, align 8
  %4 = getelementptr inbounds nuw %"struct.faiss::SimulatedAnnealingParameters", ptr %3, i32 0, i32 0
  store double 0x3FE6666666666666, ptr %4, align 8, !tbaa !105
  %5 = getelementptr inbounds nuw %"struct.faiss::SimulatedAnnealingParameters", ptr %3, i32 0, i32 1
  store double 0x3FEFFE4621ED246E, ptr %5, align 8, !tbaa !107
  %6 = getelementptr inbounds nuw %"struct.faiss::SimulatedAnnealingParameters", ptr %3, i32 0, i32 2
  store i32 500000, ptr %6, align 8, !tbaa !106
  %7 = getelementptr inbounds nuw %"struct.faiss::SimulatedAnnealingParameters", ptr %3, i32 0, i32 3
  store i32 2, ptr %7, align 4, !tbaa !93
  %8 = getelementptr inbounds nuw %"struct.faiss::SimulatedAnnealingParameters", ptr %3, i32 0, i32 4
  store i32 123, ptr %8, align 8, !tbaa !73
  %9 = getelementptr inbounds nuw %"struct.faiss::SimulatedAnnealingParameters", ptr %3, i32 0, i32 5
  store i32 0, ptr %9, align 4, !tbaa !101
  %10 = getelementptr inbounds nuw %"struct.faiss::SimulatedAnnealingParameters", ptr %3, i32 0, i32 6
  store i8 0, ptr %10, align 8, !tbaa !108
  %11 = getelementptr inbounds nuw %"struct.faiss::SimulatedAnnealingParameters", ptr %3, i32 0, i32 7
  store i8 0, ptr %11, align 1, !tbaa !95
  ret void
}

; Function Attrs: mustprogress uwtable
define void @_ZN5faiss18PolysemousTrainingC2Ev(ptr noundef nonnull align 8 dereferenceable(96) %0) unnamed_addr #0 align 2 {
  %2 = alloca ptr, align 8
  store ptr %0, ptr %2, align 8, !tbaa !133
  %3 = load ptr, ptr %2, align 8
  call void @_ZN5faiss28SimulatedAnnealingParametersC2Ev(ptr noundef nonnull align 8 dereferenceable(34) %3)
  %4 = getelementptr inbounds nuw %"struct.faiss::PolysemousTraining", ptr %3, i32 0, i32 5
  call void @_ZNSt7__cxx1112basic_stringIcSt11char_traitsIcESaIcEEC2Ev(ptr noundef nonnull align 8 dereferenceable(32) %4) #16
  %5 = getelementptr inbounds nuw %"struct.faiss::PolysemousTraining", ptr %3, i32 0, i32 1
  store i32 1, ptr %5, align 4, !tbaa !135
  %6 = getelementptr inbounds nuw %"struct.faiss::PolysemousTraining", ptr %3, i32 0, i32 2
  store i32 0, ptr %6, align 8, !tbaa !138
  %7 = call double @log(double noundef 2.000000e+00) #16, !tbaa !11
  %8 = getelementptr inbounds nuw %"struct.faiss::PolysemousTraining", ptr %3, i32 0, i32 3
  store double %7, ptr %8, align 8, !tbaa !139
  %9 = getelementptr inbounds nuw %"struct.faiss::PolysemousTraining", ptr %3, i32 0, i32 4
  store i64 21474836480, ptr %9, align 8, !tbaa !140
  ret void
}