; Function Attrs: mustprogress nofree norecurse nosync nounwind willreturn memory(argmem: write) uwtable
define void @_ZN5faiss18PolysemousTrainingC2Ev(ptr noundef nonnull align 8 dereferenceable(96) initializes((0, 34)) %0) unnamed_addr #19 align 2 personality ptr @__gxx_personality_v0 {
  store double 0x3FE6666666666666, ptr %0, align 8, !tbaa !57
  %2 = getelementptr inbounds nuw i8, ptr %0, i64 8
  store double 0x3FEFFE4621ED246E, ptr %2, align 8, !tbaa !58
  %3 = getelementptr inbounds nuw i8, ptr %0, i64 16
  store i32 500000, ptr %3, align 8, !tbaa !56
  %4 = getelementptr inbounds nuw i8, ptr %0, i64 20
  store i32 2, ptr %4, align 4, !tbaa !46
  %5 = getelementptr inbounds nuw i8, ptr %0, i64 24
  store i32 123, ptr %5, align 8, !tbaa !36
  %6 = getelementptr inbounds nuw i8, ptr %0, i64 28
  store i32 0, ptr %6, align 4, !tbaa !52
  %7 = getelementptr inbounds nuw i8, ptr %0, i64 32
  store i8 0, ptr %7, align 8, !tbaa !59
  %8 = getelementptr inbounds nuw i8, ptr %0, i64 33
  store i8 0, ptr %8, align 1, !tbaa !47
  %9 = getelementptr inbounds nuw i8, ptr %0, i64 64
  %10 = getelementptr inbounds nuw i8, ptr %0, i64 80
  store ptr %10, ptr %9, align 8, !tbaa !38
  %11 = getelementptr inbounds nuw i8, ptr %0, i64 72
  store i64 0, ptr %11, align 8, !tbaa !41
  store i8 0, ptr %10, align 8, !tbaa !44
  %12 = getelementptr inbounds nuw i8, ptr %0, i64 36
  store i32 1, ptr %12, align 4, !tbaa !71
  %13 = getelementptr inbounds nuw i8, ptr %0, i64 40
  store i32 0, ptr %13, align 8, !tbaa !74
  %14 = getelementptr inbounds nuw i8, ptr %0, i64 48
  store double 0x3FE62E42FEFA39EF, ptr %14, align 8, !tbaa !75
  %15 = getelementptr inbounds nuw i8, ptr %0, i64 56
  store i64 21474836480, ptr %15, align 8, !tbaa !76
  ret void
}